ccopy_reg
_reconstructor
p1
(cpandas.core.frame
DataFrame
p2
c__builtin__
object
p3
NtRp4
(dp5
S'_metadata'
p6
(lp7
sS'_typ'
p8
S'dataframe'
p9
sS'_data'
p10
g1
(cpandas.core.internals
BlockManager
p11
g3
NtRp12
((lp13
cpandas.indexes.base
_new_Index
p14
(cpandas.indexes.base
Index
p15
(dp16
S'data'
p17
cnumpy.core.multiarray
_reconstruct
p18
(cnumpy
ndarray
p19
(I0
tS'b'
tRp20
(I1
(I3
tcnumpy
dtype
p21
(S'O8'
I0
I1
tRp22
(I3
S'|'
NNNI-1
I-1
I63
tbI00
(lp23
S'Author'
p24
aS'Date'
p25
aS'Ratings'
p26
atbsS'name'
p27
NstRp28
ag14
(cpandas.indexes.range
RangeIndex
p29
(dp30
S'start'
p31
I0
sS'step'
p32
I1
sS'stop'
p33
I48
sg27
NstRp34
a(lp35
g18
(g19
(I0
tS'b'
tRp36
(I1
(I3
I48
tg22
I00
(lp37
Vluvsroadtrips
p38
aVestelle e
p39
aVRobertEddy
p40
aVJames R
p41
aVShobha49
p42
aVPalomitaBlanca
p43
aVQualnurse
p44
aVDebbie R
p45
aVtravelitch_gal
p46
aVKhaap
p47
aVTrini007
p48
aVrtl2
p49
aVPDXKev
p50
aVlindseypie
p51
aVMaxStevens101
p52
aVjcoken
p53
aVSQLTravller
p54
aVRTiara
p55
aVATL012
p56
aVIRIS54
p57
aVIamTooch
p58
aVErinmarieX
p59
aVaspenkmc
p60
aVexpressoparking
p61
aVteamfightingchicken
p62
aVcpalawSpokane
p63
aV19691972
p64
aVGrandmotherMia
p65
aVfiftee7chevy
p66
aVGTSDenver
p67
aVmalarie
p68
aVRiderCalifornia
p69
aVlalalalalalalal
p70
aVhutch30
p71
aVhibell
p72
aVblackbearOxfordUK
p73
aVlizzy018
p74
aVScoobySuse
p75
aVSueInManzanita
p76
aVkmter75
p77
aVA TripAdvisor Member
p78
aVhizonhizon
p79
aVA TripAdvisor Member
p80
aVcrc11
p81
aVsoledee
p82
aVA TripAdvisor Member
p83
aVA TripAdvisor Member
p84
aVjawcuda
p85
aVJanuary 3, 2012
p86
aVDecember 29, 2011
p87
aVDecember 20, 2011
p88
aVOctober 30, 2011
p89
aVSeptember 14, 2011
p90
aVSeptember 6, 2011
p91
aVSeptember 6, 2011
p92
aVAugust 27, 2011
p93
aVAugust 23, 2011
p94
aVAugust 10, 2011
p95
aVJuly 29, 2011
p96
aVJuly 18, 2011
p97
aVJune 7, 2011
p98
aVMay 22, 2011
p99
aVApril 17, 2011
p100
aVApril 15, 2011
p101
aVNovember 17, 2010
p102
aVSeptember 19, 2010
p103
aVSeptember 3, 2010
p104
aVSeptember 1, 2010
p105
aVSeptember 23, 2009
p106
aVAugust 3, 2009
p107
aVMay 19, 2009
p108
aVOctober 22, 2008
p109
aVOctober 6, 2008
p110
aVOctober 1, 2008
p111
aVSeptember 28, 2008
p112
aVSeptember 24, 2008
p113
aVAugust 18, 2008
p114
aVJuly 25, 2008
p115
aVJuly 5, 2008
p116
aVJune 26, 2008
p117
aVSeptember 24, 2007
p118
aVSeptember 23, 2007
p119
aVSeptember 12, 2007
p120
aVSeptember 5, 2007
p121
aVJuly 19, 2007
p122
aVSeptember 20, 2006
p123
aVSeptember 17, 2006
p124
aVAugust 28, 2006
p125
aVFebruary 8, 2006
p126
aVOctober 23, 2005
p127
aVJune 23, 2005
p128
aVMay 25, 2005
p129
aVJune 28, 2004
p130
aVSeptember 6, 2003
p131
aVMay 15, 2003
p132
aVNovember 3, 2002
p133
a(dp134
VService
p135
V1
sVCleanliness
p136
V1
sVOverall
p137
V1.0
p138
sVValue
p139
V1
sVSleep Quality
p140
V1
sVRooms
p141
V1
sVLocation
p142
V5
sa(dp143
VService
p144
V4
sVCleanliness
p145
V4
sVOverall
p146
V4.0
p147
sVValue
p148
V3
sVSleep Quality
p149
V5
sVRooms
p150
V3
sVLocation
p151
V5
sa(dp152
VService
p153
V1
sVCleanliness
p154
V2
sVOverall
p155
V1.0
p156
sVValue
p157
V1
sVSleep Quality
p158
V1
sVRooms
p159
V1
sVLocation
p160
V1
sa(dp161
VService
p162
V1
sVCleanliness
p163
V1
sVOverall
p164
V1.0
p165
sVValue
p166
V1
sVSleep Quality
p167
V1
sVRooms
p168
V1
sVLocation
p169
V1
sa(dp170
VService
p171
V1
sVOverall
p172
V1.0
p173
sVLocation
p174
V5
sVValue
p175
V3
sVRooms
p176
V1
sa(dp177
VCleanliness
p178
V4
sVSleep Quality
p179
V3
sVOverall
p180
V3.0
p181
sVService
p182
V4
sVValue
p183
V3
sa(dp184
VCleanliness
p185
V4
sVSleep Quality
p186
V4
sVOverall
p187
V4.0
p188
sVService
p189
V4
sVValue
p190
V5
sa(dp191
VCleanliness
p192
V2
sVSleep Quality
p193
V2
sVOverall
p194
V1.0
p195
sVService
p196
V2
sVValue
p197
V1
sa(dp198
VCleanliness
p199
V4
sVSleep Quality
p200
V3
sVOverall
p201
V3.0
p202
sVService
p203
V4
sVValue
p204
V4
sa(dp205
VCleanliness
p206
V5
sVSleep Quality
p207
V5
sVOverall
p208
V4.0
p209
sVService
p210
V4
sVValue
p211
V5
sa(dp212
VCleanliness
p213
V1
sVSleep Quality
p214
V1
sVOverall
p215
V1.0
p216
sVService
p217
V1
sVValue
p218
V1
sa(dp219
VCleanliness
p220
V2
sVSleep Quality
p221
V3
sVOverall
p222
V2.0
p223
sVService
p224
V3
sVValue
p225
V3
sa(dp226
VCleanliness
p227
V1
sVSleep Quality
p228
V2
sVOverall
p229
V1.0
p230
sVService
p231
V1
sVValue
p232
V1
sa(dp233
VService
p234
V1
sVCleanliness
p235
V2
sVOverall
p236
V1.0
p237
sVValue
p238
V1
sVSleep Quality
p239
V2
sVRooms
p240
V1
sVLocation
p241
V5
sa(dp242
VService
p243
V1
sVCleanliness
p244
V1
sVOverall
p245
V1.0
p246
sVValue
p247
V1
sVSleep Quality
p248
V1
sVRooms
p249
V1
sVLocation
p250
V3
sa(dp251
VOverall
p252
V1.0
p253
sVService
p254
V1
sa(dp255
VService
p256
V1
sVCleanliness
p257
V1
sVOverall
p258
V1.0
p259
sVValue
p260
V1
sVSleep Quality
p261
V1
sVRooms
p262
V1
sVLocation
p263
V2
sa(dp264
VOverall
p265
V1.0
p266
sa(dp267
VService
p268
V1
sVCleanliness
p269
V1
sVOverall
p270
V1.0
p271
sVValue
p272
V1
sVSleep Quality
p273
V1
sVRooms
p274
V1
sVLocation
p275
V4
sa(dp276
VService
p277
V1
sVCleanliness
p278
V2
sVOverall
p279
V1.0
p280
sVValue
p281
V1
sVSleep Quality
p282
V1
sVRooms
p283
V1
sVLocation
p284
V4
sa(dp285
VService
p286
V1
sVCleanliness
p287
V1
sVOverall
p288
V1.0
p289
sVValue
p290
V1
sVRooms
p291
V1
sVLocation
p292
V5
sa(dp293
VService
p294
V2
sVCleanliness
p295
V2
sVOverall
p296
V1.0
p297
sVValue
p298
V2
sVRooms
p299
V2
sVLocation
p300
V5
sa(dp301
VService
p302
V2
sVCleanliness
p303
V1
sVOverall
p304
V1.0
p305
sVValue
p306
V1
sVRooms
p307
V1
sVLocation
p308
V3
sa(dp309
VService
p310
V3
sVCleanliness
p311
V1
sVCheck in / front desk
p312
V3
sVOverall
p313
V2.0
p314
sVValue
p315
V1
sVRooms
p316
V1
sVLocation
p317
V5
sa(dp318
VService
p319
V1
sVCleanliness
p320
V1
sVBusiness service (e.g., internet access)
p321
V1
sVCheck in / front desk
p322
V2
sVOverall
p323
V1.0
p324
sVValue
p325
V2
sVRooms
p326
V1
sVLocation
p327
V5
sa(dp328
VService
p329
V3
sVCleanliness
p330
V2
sVCheck in / front desk
p331
V4
sVOverall
p332
V3.0
p333
sVValue
p334
V4
sVRooms
p335
V2
sVLocation
p336
V5
sa(dp337
VService
p338
V1
sVCleanliness
p339
V2
sVCheck in / front desk
p340
V1
sVOverall
p341
V1.0
p342
sVValue
p343
V1
sVRooms
p344
V1
sVLocation
p345
V4
sa(dp346
VService
p347
V4
sVCleanliness
p348
V3
sVCheck in / front desk
p349
V3
sVOverall
p350
V3.0
p351
sVValue
p352
V3
sVRooms
p353
V2
sVLocation
p354
V2
sa(dp355
VCleanliness
p356
V2
sVCheck in / front desk
p357
V3
sVOverall
p358
V1.0
p359
sVValue
p360
V1
sVRooms
p361
V1
sVLocation
p362
V2
sa(dp363
VService
p364
V2
sVCleanliness
p365
V1
sVBusiness service (e.g., internet access)
p366
V1
sVCheck in / front desk
p367
V2
sVOverall
p368
V1.0
p369
sVValue
p370
V2
sVRooms
p371
V1
sVLocation
p372
V4
sa(dp373
VService
p374
V5
sVCleanliness
p375
V3
sVCheck in / front desk
p376
V5
sVOverall
p377
V3.0
p378
sVValue
p379
V3
sVRooms
p380
V3
sVLocation
p381
V5
sa(dp382
VOverall
p383
V1.0
p384
sa(dp385
VService
p386
V4
sVCleanliness
p387
V3
sVCheck in / front desk
p388
V5
sVOverall
p389
V4.0
p390
sVValue
p391
V4
sVRooms
p392
V3
sVLocation
p393
V5
sa(dp394
VService
p395
V1
sVCleanliness
p396
V1
sVBusiness service (e.g., internet access)
p397
V1
sVCheck in / front desk
p398
V1
sVOverall
p399
V1.0
p400
sVValue
p401
V1
sVRooms
p402
V1
sVLocation
p403
V5
sa(dp404
VService
p405
V3
sVCleanliness
p406
V3
sVBusiness service (e.g., internet access)
p407
V1
sVCheck in / front desk
p408
V3
sVOverall
p409
V2.0
p410
sVValue
p411
V2
sVRooms
p412
V2
sVLocation
p413
V4
sa(dp414
VService
p415
V2
sVCleanliness
p416
V1
sVBusiness service (e.g., internet access)
p417
V1
sVCheck in / front desk
p418
V3
sVOverall
p419
V1.0
p420
sVValue
p421
V1
sVRooms
p422
V1
sVLocation
p423
V4
sa(dp424
VService
p425
V3
sVCleanliness
p426
V1
sVCheck in / front desk
p427
V2
sVOverall
p428
V1.0
p429
sVValue
p430
V1
sVRooms
p431
V1
sVLocation
p432
V5
sa(dp433
VOverall
p434
V1.0
p435
sa(dp436
VCleanliness
p437
V1
sVBusiness service (e.g., internet access)
p438
V1
sVOverall
p439
V1.0
p440
sVRooms
p441
V1
sVValue
p442
V1
sa(dp443
VService
p444
V5
sVCleanliness
p445
V3
sVCheck in / front desk
p446
V5
sVOverall
p447
V4.0
p448
sVValue
p449
V4
sVRooms
p450
V5
sVLocation
p451
V5
sa(dp452
VCleanliness
p453
V1
sVOverall
p454
V1.0
p455
sVService
p456
V2
sVValue
p457
V1
sVRooms
p458
V1
sa(dp459
VCleanliness
p460
V2
sVOverall
p461
V2.0
p462
sVService
p463
V3
sVValue
p464
V3
sVRooms
p465
V2
sa(dp466
VCleanliness
p467
V4
sVOverall
p468
V3.0
p469
sVService
p470
V4
sVValue
p471
V4
sVRooms
p472
V4
sa(dp473
VCleanliness
p474
V1
sVOverall
p475
V1.0
p476
sVService
p477
V1
sVValue
p478
V1
sVRooms
p479
V1
sa(dp480
VOverall
p481
V2.0
p482
sa(dp483
VCleanliness
p484
V2
sVOverall
p485
V1.0
p486
sVService
p487
V3
sVValue
p488
V1
sVRooms
p489
V1
sa(dp490
VOverall
p491
V1.0
p492
sa(dp493
VOverall
p494
V1.0
p495
satba(lp496
g14
(g15
(dp497
g17
g18
(g19
(I0
tS'b'
tRp498
(I1
(I3
tg22
I00
(lp499
g24
ag25
ag26
atbsg27
NstRp500
a(dp501
S'0.14.1'
p502
(dp503
S'axes'
p504
g13
sS'blocks'
p505
(lp506
(dp507
S'mgr_locs'
p508
c__builtin__
slice
p509
(I0
I3
I1
tRp510
sS'values'
p511
g36
sasstbsb.